target datalayout = "e-m:e-p270:32:32-p271:32:32-p272:64:64-i64:64-i128:128-f80:128-n8:16:32:64-S128"
target triple = "x86_64-pc-linux-gnu"

%struct.cbb_st = type { ptr, ptr, i64, i8, i8, i8 }

@.str = private unnamed_addr constant [124 x i8] c"generated/home/dtcxzyw/WorkSpace/Projects/compilers/llvm-opt-benchmark/bench/libquic/libquic/boringssl/crypto/pkcs8/pkcs8.c\00", align 1

; Function Attrs: nounwind uwtable
define hidden ptr @EVP_PKEY2PKCS8(ptr noundef %0) #0 {
  %2 = alloca ptr, align 8
  %3 = alloca ptr, align 8
  %4 = alloca %struct.cbb_st, align 8
  %5 = alloca ptr, align 8
  %6 = alloca i64, align 8
  %7 = alloca ptr, align 8
  %8 = alloca ptr, align 8
  %9 = alloca i32, align 4
  store ptr %0, ptr %3, align 8, !tbaa !46
  call void @llvm.lifetime.start.p0(i64 32, ptr %4) #8
  call void @llvm.lifetime.start.p0(i64 8, ptr %5) #8
  store ptr null, ptr %5, align 8, !tbaa !11
  call void @llvm.lifetime.start.p0(i64 8, ptr %6) #8
  %10 = call i32 @CBB_init(ptr noundef %4, i64 noundef 0)
  %11 = icmp ne i32 %10, 0
  br i1 %11, label %12, label %22

12:                                               ; preds = %1
  %13 = load ptr, ptr %3, align 8, !tbaa !46
  %14 = call i32 @EVP_marshal_private_key(ptr noundef %4, ptr noundef %13)
  %15 = icmp ne i32 %14, 0
  br i1 %15, label %16, label %22

16:                                               ; preds = %12
  %17 = call i32 @CBB_finish(ptr noundef %4, ptr noundef %5, ptr noundef %6)
  %18 = icmp ne i32 %17, 0
  br i1 %18, label %19, label %22

19:                                               ; preds = %16
  %20 = load i64, ptr %6, align 8, !tbaa !15
  %21 = icmp ugt i64 %20, 9223372036854775807
  br i1 %21, label %22, label %23

22:                                               ; preds = %19, %16, %12, %1
  call void @CBB_cleanup(ptr noundef %4)
  call void @ERR_put_error(i32 noundef 19, i32 noundef 0, i32 noundef 105, ptr noundef @.str, i32 noundef 633)
  br label %40

23:                                               ; preds = %19
  %24 = load ptr, ptr %5, align 8, !tbaa !11
  store ptr %24, ptr %7, align 8, !tbaa !11
  %25 = load i64, ptr %6, align 8, !tbaa !15
  %26 = call ptr @d2i_PKCS8_PRIV_KEY_INFO(ptr noundef null, ptr noundef %7, i64 noundef %25)
  store ptr %26, ptr %8, align 8, !tbaa !25
  %27 = load ptr, ptr %8, align 8, !tbaa !25
  %28 = icmp eq ptr %27, null
  br i1 %28, label %35, label %29

29:                                               ; preds = %23
  %30 = load ptr, ptr %7, align 8, !tbaa !11
  %31 = load ptr, ptr %5, align 8, !tbaa !11
  %32 = load i64, ptr %6, align 8, !tbaa !15
  %33 = getelementptr inbounds nuw i8, ptr %31, i64 %32
  %34 = icmp ne ptr %30, %33
  br i1 %34, label %35, label %37

35:                                               ; preds = %29, %23
  %36 = load ptr, ptr %8, align 8, !tbaa !25
  call void @PKCS8_PRIV_KEY_INFO_free(ptr noundef %36)
  call void @ERR_put_error(i32 noundef 19, i32 noundef 0, i32 noundef 104, ptr noundef @.str, i32 noundef 641)
  br label %40

37:                                               ; preds = %29
  %38 = load ptr, ptr %5, align 8, !tbaa !11
  call void @free(ptr noundef %38) #8
  %39 = load ptr, ptr %8, align 8, !tbaa !25
  store ptr %39, ptr %2, align 8
  store i32 1, ptr %9, align 4
  br label %42

40:                                               ; preds = %35, %22
  %41 = load ptr, ptr %5, align 8, !tbaa !11
  call void @free(ptr noundef %41) #8
  store ptr null, ptr %2, align 8
  store i32 1, ptr %9, align 4
  br label %42

42:                                               ; preds = %40, %37
  call void @llvm.lifetime.end.p0(i64 8, ptr %6) #8
  call void @llvm.lifetime.end.p0(i64 8, ptr %5) #8
  call void @llvm.lifetime.end.p0(i64 32, ptr %4) #8
  %43 = load ptr, ptr %2, align 8
  ret ptr %43
}