; Function Attrs: nounwind uwtable
define hidden ptr @EVP_PKEY2PKCS8(ptr noundef %0) local_unnamed_addr #0 {
  %2 = alloca %struct.cbb_st, align 8
  %3 = alloca ptr, align 8
  %4 = alloca i64, align 8
  %5 = alloca ptr, align 8
  call void @llvm.lifetime.start.p0(i64 32, ptr nonnull %2) #12
  call void @llvm.lifetime.start.p0(i64 8, ptr nonnull %3) #12
  store ptr null, ptr %3, align 8, !tbaa !6
  call void @llvm.lifetime.start.p0(i64 8, ptr nonnull %4) #12
  %6 = call i32 @CBB_init(ptr noundef nonnull %2, i64 noundef 0) #12
  %.not = icmp eq i32 %6, 0
  br i1 %.not, label %14, label %7

7:                                                ; preds = %1
  %8 = call i32 @EVP_marshal_private_key(ptr noundef nonnull %2, ptr noundef %0) #12
  %.not7 = icmp eq i32 %8, 0
  br i1 %.not7, label %14, label %9

9:                                                ; preds = %7
  %10 = call i32 @CBB_finish(ptr noundef nonnull %2, ptr noundef nonnull %3, ptr noundef nonnull %4) #12
  %11 = icmp eq i32 %10, 0
  %12 = load i64, ptr %4, align 8
  %13 = icmp slt i64 %12, 0
  %or.cond = select i1 %11, i1 true, i1 %13
  br i1 %or.cond, label %14, label %15

14:                                               ; preds = %9, %7, %1
  call void @CBB_cleanup(ptr noundef nonnull %2) #12
  call void @ERR_put_error(i32 noundef 19, i32 noundef 0, i32 noundef 105, ptr noundef nonnull @.str, i32 noundef 633) #12
  br label %25

15:                                               ; preds = %9
  %16 = load ptr, ptr %3, align 8, !tbaa !6
  store ptr %16, ptr %5, align 8, !tbaa !6
  %17 = call ptr @d2i_PKCS8_PRIV_KEY_INFO(ptr noundef null, ptr noundef nonnull %5, i64 noundef %12) #12
  %18 = icmp eq ptr %17, null
  br i1 %18, label %24, label %19

19:                                               ; preds = %15
  %20 = load ptr, ptr %5, align 8, !tbaa !6
  %21 = load ptr, ptr %3, align 8, !tbaa !6
  %22 = load i64, ptr %4, align 8, !tbaa !11
  %23 = getelementptr inbounds nuw i8, ptr %21, i64 %22
  %.not8 = icmp eq ptr %20, %23
  br i1 %.not8, label %27, label %24

24:                                               ; preds = %19, %15
  call void @PKCS8_PRIV_KEY_INFO_free(ptr noundef %17) #12
  call void @ERR_put_error(i32 noundef 19, i32 noundef 0, i32 noundef 104, ptr noundef nonnull @.str, i32 noundef 641) #12
  br label %25

25:                                               ; preds = %24, %14
  %26 = load ptr, ptr %3, align 8, !tbaa !6
  br label %27

27:                                               ; preds = %19, %25
  %.sink = phi ptr [ %26, %25 ], [ %21, %19 ]
  %.0 = phi ptr [ null, %25 ], [ %17, %19 ]
  call void @free(ptr noundef %.sink) #12
  call void @llvm.lifetime.end.p0(i64 8, ptr nonnull %4) #12
  call void @llvm.lifetime.end.p0(i64 8, ptr nonnull %3) #12
  call void @llvm.lifetime.end.p0(i64 32, ptr nonnull %2) #12
  ret ptr %.0
}